target datalayout = "e-m:e-p270:32:32-p271:32:32-p272:64:64-i64:64-i128:128-f80:128-n8:16:32:64-S128"
target triple = "x86_64-pc-linux-gnu"

%struct.PrintfTarget = type { ptr, ptr, ptr, ptr, i32, i8 }

; Function Attrs: nounwind uwtable
define internal void @flushbuffer(ptr noundef %0) #0 {
  %2 = alloca ptr, align 8
  %3 = alloca i64, align 8
  %4 = alloca i64, align 8
  store ptr %0, ptr %2, align 8
  call void @llvm.lifetime.start.p0(i64 8, ptr %3) #10
  %5 = load ptr, ptr %2, align 8
  %6 = getelementptr inbounds nuw %struct.PrintfTarget, ptr %5, i32 0, i32 0
  %7 = load ptr, ptr %6, align 8
  %8 = load ptr, ptr %2, align 8
  %9 = getelementptr inbounds nuw %struct.PrintfTarget, ptr %8, i32 0, i32 1
  %10 = load ptr, ptr %9, align 8
  %11 = ptrtoint ptr %7 to i64
  %12 = ptrtoint ptr %10 to i64
  %13 = sub i64 %11, %12
  store i64 %13, ptr %3, align 8
  %14 = load ptr, ptr %2, align 8
  %15 = getelementptr inbounds nuw %struct.PrintfTarget, ptr %14, i32 0, i32 5
  %16 = load i8, ptr %15, align 4, !range !3, !noundef !4
  %17 = trunc i8 %16 to i1
  br i1 %17, label %44, label %18

18:                                               ; preds = %1
  %19 = load i64, ptr %3, align 8
  %20 = icmp ugt i64 %19, 0
  br i1 %20, label %21, label %44

21:                                               ; preds = %18
  call void @llvm.lifetime.start.p0(i64 8, ptr %4) #10
  %22 = load ptr, ptr %2, align 8
  %23 = getelementptr inbounds nuw %struct.PrintfTarget, ptr %22, i32 0, i32 1
  %24 = load ptr, ptr %23, align 8
  %25 = load i64, ptr %3, align 8
  %26 = load ptr, ptr %2, align 8
  %27 = getelementptr inbounds nuw %struct.PrintfTarget, ptr %26, i32 0, i32 3
  %28 = load ptr, ptr %27, align 8
  %29 = call i64 @fwrite(ptr noundef %24, i64 noundef 1, i64 noundef %25, ptr noundef %28)
  store i64 %29, ptr %4, align 8
  %30 = load i64, ptr %4, align 8
  %31 = load ptr, ptr %2, align 8
  %32 = getelementptr inbounds nuw %struct.PrintfTarget, ptr %31, i32 0, i32 4
  %33 = load i32, ptr %32, align 8
  %34 = sext i32 %33 to i64
  %35 = add i64 %34, %30
  %36 = trunc i64 %35 to i32
  store i32 %36, ptr %32, align 8
  %37 = load i64, ptr %4, align 8
  %38 = load i64, ptr %3, align 8
  %39 = icmp ne i64 %37, %38
  br i1 %39, label %40, label %43

40:                                               ; preds = %21
  %41 = load ptr, ptr %2, align 8
  %42 = getelementptr inbounds nuw %struct.PrintfTarget, ptr %41, i32 0, i32 5
  store i8 1, ptr %42, align 4
  br label %43

43:                                               ; preds = %40, %21
  call void @llvm.lifetime.end.p0(i64 8, ptr %4) #10
  br label %44

44:                                               ; preds = %43, %18, %1
  %45 = load ptr, ptr %2, align 8
  %46 = getelementptr inbounds nuw %struct.PrintfTarget, ptr %45, i32 0, i32 1
  %47 = load ptr, ptr %46, align 8
  %48 = load ptr, ptr %2, align 8
  %49 = getelementptr inbounds nuw %struct.PrintfTarget, ptr %48, i32 0, i32 0
  store ptr %47, ptr %49, align 8
  call void @llvm.lifetime.end.p0(i64 8, ptr %3) #10
  ret void
}

; Function Attrs: nounwind uwtable
define i32 @pg_vfprintf(ptr noundef %0, ptr noundef %1, ptr noundef %2) #0 {
  %4 = alloca i32, align 4
  %5 = alloca ptr, align 8
  %6 = alloca ptr, align 8
  %7 = alloca ptr, align 8
  %8 = alloca %struct.PrintfTarget, align 8
  %9 = alloca [1024 x i8], align 16
  %10 = alloca i32, align 4
  store ptr %0, ptr %5, align 8
  store ptr %1, ptr %6, align 8
  store ptr %2, ptr %7, align 8
  call void @llvm.lifetime.start.p0(i64 40, ptr %8) #10
  call void @llvm.lifetime.start.p0(i64 1024, ptr %9) #10
  %11 = load ptr, ptr %5, align 8
  %12 = icmp eq ptr %11, null
  br i1 %12, label %13, label %15

13:                                               ; preds = %3
  %14 = call ptr @__errno_location() #11
  store i32 22, ptr %14, align 4
  store i32 -1, ptr %4, align 4
  store i32 1, ptr %10, align 4
  br label %37

15:                                               ; preds = %3
  %16 = getelementptr inbounds [1024 x i8], ptr %9, i64 0, i64 0
  %17 = getelementptr inbounds nuw %struct.PrintfTarget, ptr %8, i32 0, i32 0
  store ptr %16, ptr %17, align 8
  %18 = getelementptr inbounds nuw %struct.PrintfTarget, ptr %8, i32 0, i32 1
  store ptr %16, ptr %18, align 8
  %19 = getelementptr inbounds [1024 x i8], ptr %9, i64 0, i64 0
  %20 = getelementptr inbounds nuw i8, ptr %19, i64 1024
  %21 = getelementptr inbounds nuw %struct.PrintfTarget, ptr %8, i32 0, i32 2
  store ptr %20, ptr %21, align 8
  %22 = load ptr, ptr %5, align 8
  %23 = getelementptr inbounds nuw %struct.PrintfTarget, ptr %8, i32 0, i32 3
  store ptr %22, ptr %23, align 8
  %24 = getelementptr inbounds nuw %struct.PrintfTarget, ptr %8, i32 0, i32 4
  store i32 0, ptr %24, align 8
  %25 = getelementptr inbounds nuw %struct.PrintfTarget, ptr %8, i32 0, i32 5
  store i8 0, ptr %25, align 4
  %26 = load ptr, ptr %6, align 8
  %27 = load ptr, ptr %7, align 8
  call void @dopr(ptr noundef %8, ptr noundef %26, ptr noundef %27)
  call void @flushbuffer(ptr noundef %8)
  %28 = getelementptr inbounds nuw %struct.PrintfTarget, ptr %8, i32 0, i32 5
  %29 = load i8, ptr %28, align 4, !range !3, !noundef !4
  %30 = trunc i8 %29 to i1
  br i1 %30, label %31, label %32

31:                                               ; preds = %15
  br label %35

32:                                               ; preds = %15
  %33 = getelementptr inbounds nuw %struct.PrintfTarget, ptr %8, i32 0, i32 4
  %34 = load i32, ptr %33, align 8
  br label %35

35:                                               ; preds = %32, %31
  %36 = phi i32 [ -1, %31 ], [ %34, %32 ]
  store i32 %36, ptr %4, align 4
  store i32 1, ptr %10, align 4
  br label %37

37:                                               ; preds = %35, %13
  call void @llvm.lifetime.end.p0(i64 1024, ptr %9) #10
  call void @llvm.lifetime.end.p0(i64 40, ptr %8) #10
  %38 = load i32, ptr %4, align 4
  ret i32 %38
}