; Function Attrs: nounwind uwtable
define i32 @pg_vfprintf(ptr noundef %0, ptr noundef %1, ptr noundef captures(none) %2) local_unnamed_addr #0 {
  %4 = alloca %struct.PrintfTarget, align 8
  %5 = alloca [1024 x i8], align 16
  call void @llvm.lifetime.start.p0(i64 40, ptr nonnull %4) #14
  call void @llvm.lifetime.start.p0(i64 1024, ptr nonnull %5) #14
  %6 = icmp eq ptr %0, null
  br i1 %6, label %7, label %9

7:                                                ; preds = %3
  %8 = tail call ptr @__errno_location() #15
  store i32 22, ptr %8, align 4
  br label %34

9:                                                ; preds = %3
  store ptr %5, ptr %4, align 8
  %10 = getelementptr inbounds nuw i8, ptr %4, i64 8
  store ptr %5, ptr %10, align 8
  %11 = getelementptr inbounds nuw i8, ptr %5, i64 1024
  %12 = getelementptr inbounds nuw i8, ptr %4, i64 16
  store ptr %11, ptr %12, align 8
  %13 = getelementptr inbounds nuw i8, ptr %4, i64 24
  store ptr %0, ptr %13, align 8
  %14 = getelementptr inbounds nuw i8, ptr %4, i64 32
  store i32 0, ptr %14, align 8
  %15 = getelementptr inbounds nuw i8, ptr %4, i64 36
  store i8 0, ptr %15, align 4
  call fastcc void @dopr(ptr noundef %4, ptr noundef %1, ptr noundef %2)
  %16 = load ptr, ptr %4, align 8
  %17 = load ptr, ptr %10, align 8
  %18 = load i8, ptr %15, align 4, !range !3, !noundef !4
  %19 = trunc nuw i8 %18 to i1
  %20 = icmp eq ptr %16, %17
  %or.cond.not.i = select i1 %19, i1 true, i1 %20
  br i1 %or.cond.not.i, label %.flushbuffer.exit_crit_edge, label %22

.flushbuffer.exit_crit_edge:                      ; preds = %9
  %.pre = load i32, ptr %14, align 8
  %21 = trunc nuw i8 %18 to i1
  br label %flushbuffer.exit

22:                                               ; preds = %9
  %23 = ptrtoint ptr %17 to i64
  %24 = ptrtoint ptr %16 to i64
  %25 = sub i64 %24, %23
  %26 = load ptr, ptr %13, align 8
  %27 = call i64 @fwrite(ptr noundef %17, i64 noundef 1, i64 noundef %25, ptr noundef %26)
  %28 = load i32, ptr %14, align 8
  %29 = trunc i64 %27 to i32
  %30 = add i32 %28, %29
  %.not.i = icmp ne i64 %27, %25
  br label %flushbuffer.exit

flushbuffer.exit:                                 ; preds = %22, %.flushbuffer.exit_crit_edge
  %31 = phi i32 [ %.pre, %.flushbuffer.exit_crit_edge ], [ %30, %22 ]
  %32 = phi i1 [ %21, %.flushbuffer.exit_crit_edge ], [ %.not.i, %22 ]
  %33 = select i1 %32, i32 -1, i32 %31
  br label %34

34:                                               ; preds = %flushbuffer.exit, %7
  %.0 = phi i32 [ -1, %7 ], [ %33, %flushbuffer.exit ]
  call void @llvm.lifetime.end.p0(i64 1024, ptr nonnull %5) #14
  call void @llvm.lifetime.end.p0(i64 40, ptr nonnull %4) #14
  ret i32 %.0
}